; ModuleID = 'source-C-CXX/33/1122.cpp'
source_filename = "source-C-CXX/33/1122.cpp"
target datalayout = "e-m:e-p270:32:32-p271:32:32-p272:64:64-i64:64-f80:128-n8:16:32:64-S128"
target triple = "x86_64-pc-linux-gnu"

%"class.std::ios_base::Init" = type { i8 }
%"class.std::basic_istream" = type { i32 (...)**, i64, %"class.std::basic_ios" }
%"class.std::basic_ios" = type { %"class.std::ios_base", %"class.std::basic_ostream"*, i8, i8, %"class.std::basic_streambuf"*, %"class.std::ctype"*, %"class.std::num_put"*, %"class.std::num_get"* }
%"class.std::ios_base" = type { i32 (...)**, i64, i64, i32, i32, i32, %"struct.std::ios_base::_Callback_list"*, %"struct.std::ios_base::_Words", [8 x %"struct.std::ios_base::_Words"], i32, %"struct.std::ios_base::_Words"*, %"class.std::locale" }
%"struct.std::ios_base::_Callback_list" = type { %"struct.std::ios_base::_Callback_list"*, void (i32, %"class.std::ios_base"*, i32)*, i32, i32 }
%"struct.std::ios_base::_Words" = type { i8*, i64 }
%"class.std::locale" = type { %"class.std::locale::_Impl"* }
%"class.std::locale::_Impl" = type { i32, %"class.std::locale::facet"**, i64, %"class.std::locale::facet"**, i8** }
%"class.std::locale::facet" = type <{ i32 (...)**, i32, [4 x i8] }>
%"class.std::basic_ostream" = type { i32 (...)**, %"class.std::basic_ios" }
%"class.std::basic_streambuf" = type { i32 (...)**, i8*, i8*, i8*, i8*, i8*, i8*, %"class.std::locale" }
%"class.std::ctype" = type <{ %"class.std::locale::facet.base", [4 x i8], %struct.__locale_struct*, i8, [7 x i8], i32*, i32*, i16*, i8, [256 x i8], [256 x i8], i8, [6 x i8] }>
%"class.std::locale::facet.base" = type <{ i32 (...)**, i32 }>
%struct.__locale_struct = type { [13 x %struct.__locale_data*], i16*, i32*, i32*, [13 x i8*] }
%struct.__locale_data = type opaque
%"class.std::num_put" = type { %"class.std::locale::facet.base", [4 x i8] }
%"class.std::num_get" = type { %"class.std::locale::facet.base", [4 x i8] }

@_ZStL8__ioinit = internal global %"class.std::ios_base::Init" zeroinitializer, align 1
@__dso_handle = external hidden global i8
@_ZSt3cin = external global %"class.std::basic_istream", align 8
@_ZSt4cout = external global %"class.std::basic_ostream", align 8
@.str = private unnamed_addr constant [4 x i8] c"/2=\00", align 1
@.str.1 = private unnamed_addr constant [6 x i8] c"*3+1=\00", align 1
@.str.2 = private unnamed_addr constant [4 x i8] c"End\00", align 1
@llvm.global_ctors = appending global [1 x { i32, void ()*, i8* }] [{ i32, void ()*, i8* } { i32 65535, void ()* @_GLOBAL__sub_I_1122.cpp, i8* null }]

declare void @_ZNSt8ios_base4InitC1Ev(%"class.std::ios_base::Init"* nonnull align 1 dereferenceable(1)) unnamed_addr #0

; Function Attrs: nounwind
declare void @_ZNSt8ios_base4InitD1Ev(%"class.std::ios_base::Init"* nonnull align 1 dereferenceable(1)) unnamed_addr #1

; Function Attrs: nofree nounwind
declare i32 @__cxa_atexit(void (i8*)*, i8*, i8*) local_unnamed_addr #2

; Function Attrs: mustprogress norecurse sspstrong uwtable
define dso_local i32 @main(i32 %0, i8** nocapture readnone %1) local_unnamed_addr #3 {
  %3 = alloca i32, align 4
  %4 = bitcast i32* %3 to i8*
  call void @llvm.lifetime.start.p0i8(i64 4, i8* nonnull %4) #7
  %5 = call nonnull align 8 dereferenceable(16) %"class.std::basic_istream"* @_ZNSirsERi(%"class.std::basic_istream"* nonnull align 8 dereferenceable(16) @_ZSt3cin, i32* nonnull align 4 dereferenceable(4) %3)
  %6 = load i32, i32* %3, align 4, !tbaa !5
  %7 = icmp eq i32 %6, 1
  br i1 %7, label %90, label %8

8:                                                ; preds = %2, %87
  %9 = phi i32 [ %88, %87 ], [ %6, %2 ]
  %10 = and i32 %9, 1
  %11 = icmp eq i32 %10, 0
  %12 = call nonnull align 8 dereferenceable(8) %"class.std::basic_ostream"* @_ZNSolsEi(%"class.std::basic_ostream"* nonnull align 8 dereferenceable(8) @_ZSt4cout, i32 %9)
  br i1 %11, label %13, label %49

13:                                               ; preds = %8
  %14 = call nonnull align 8 dereferenceable(8) %"class.std::basic_ostream"* @_ZSt16__ostream_insertIcSt11char_traitsIcEERSt13basic_ostreamIT_T0_ES6_PKS3_l(%"class.std::basic_ostream"* nonnull align 8 dereferenceable(8) %12, i8* nonnull getelementptr inbounds ([4 x i8], [4 x i8]* @.str, i64 0, i64 0), i64 3)
  %15 = load i32, i32* %3, align 4, !tbaa !5
  %16 = sdiv i32 %15, 2
  %17 = call nonnull align 8 dereferenceable(8) %"class.std::basic_ostream"* @_ZNSolsEi(%"class.std::basic_ostream"* nonnull align 8 dereferenceable(8) %12, i32 %16)
  %18 = bitcast %"class.std::basic_ostream"* %17 to i8**
  %19 = load i8*, i8** %18, align 8, !tbaa !9
  %20 = getelementptr i8, i8* %19, i64 -24
  %21 = bitcast i8* %20 to i64*
  %22 = load i64, i64* %21, align 8
  %23 = bitcast %"class.std::basic_ostream"* %17 to i8*
  %24 = add nsw i64 %22, 240
  %25 = getelementptr inbounds i8, i8* %23, i64 %24
  %26 = bitcast i8* %25 to %"class.std::ctype"**
  %27 = load %"class.std::ctype"*, %"class.std::ctype"** %26, align 8, !tbaa !11
  %28 = icmp eq %"class.std::ctype"* %27, null
  br i1 %28, label %29, label %30

29:                                               ; preds = %13
  call void @_ZSt16__throw_bad_castv() #8
  unreachable

30:                                               ; preds = %13
  %31 = getelementptr inbounds %"class.std::ctype", %"class.std::ctype"* %27, i64 0, i32 8
  %32 = load i8, i8* %31, align 8, !tbaa !15
  %33 = icmp eq i8 %32, 0
  br i1 %33, label %37, label %34

34:                                               ; preds = %30
  %35 = getelementptr inbounds %"class.std::ctype", %"class.std::ctype"* %27, i64 0, i32 9, i64 10
  %36 = load i8, i8* %35, align 1, !tbaa !17
  br label %43

37:                                               ; preds = %30
  call void @_ZNKSt5ctypeIcE13_M_widen_initEv(%"class.std::ctype"* nonnull align 8 dereferenceable(570) %27)
  %38 = bitcast %"class.std::ctype"* %27 to i8 (%"class.std::ctype"*, i8)***
  %39 = load i8 (%"class.std::ctype"*, i8)**, i8 (%"class.std::ctype"*, i8)*** %38, align 8, !tbaa !9
  %40 = getelementptr inbounds i8 (%"class.std::ctype"*, i8)*, i8 (%"class.std::ctype"*, i8)** %39, i64 6
  %41 = load i8 (%"class.std::ctype"*, i8)*, i8 (%"class.std::ctype"*, i8)** %40, align 8
  %42 = call signext i8 %41(%"class.std::ctype"* nonnull align 8 dereferenceable(570) %27, i8 signext 10)
  br label %43

43:                                               ; preds = %34, %37
  %44 = phi i8 [ %36, %34 ], [ %42, %37 ]
  %45 = call nonnull align 8 dereferenceable(8) %"class.std::basic_ostream"* @_ZNSo3putEc(%"class.std::basic_ostream"* nonnull align 8 dereferenceable(8) %17, i8 signext %44)
  %46 = call nonnull align 8 dereferenceable(8) %"class.std::basic_ostream"* @_ZNSo5flushEv(%"class.std::basic_ostream"* nonnull align 8 dereferenceable(8) %45)
  %47 = load i32, i32* %3, align 4, !tbaa !5
  %48 = sdiv i32 %47, 2
  br label %87

49:                                               ; preds = %8
  %50 = call nonnull align 8 dereferenceable(8) %"class.std::basic_ostream"* @_ZSt16__ostream_insertIcSt11char_traitsIcEERSt13basic_ostreamIT_T0_ES6_PKS3_l(%"class.std::basic_ostream"* nonnull align 8 dereferenceable(8) %12, i8* nonnull getelementptr inbounds ([6 x i8], [6 x i8]* @.str.1, i64 0, i64 0), i64 5)
  %51 = load i32, i32* %3, align 4, !tbaa !5
  %52 = mul nsw i32 %51, 3
  %53 = add nsw i32 %52, 1
  %54 = call nonnull align 8 dereferenceable(8) %"class.std::basic_ostream"* @_ZNSolsEi(%"class.std::basic_ostream"* nonnull align 8 dereferenceable(8) %12, i32 %53)
  %55 = bitcast %"class.std::basic_ostream"* %54 to i8**
  %56 = load i8*, i8** %55, align 8, !tbaa !9
  %57 = getelementptr i8, i8* %56, i64 -24
  %58 = bitcast i8* %57 to i64*
  %59 = load i64, i64* %58, align 8
  %60 = bitcast %"class.std::basic_ostream"* %54 to i8*
  %61 = add nsw i64 %59, 240
  %62 = getelementptr inbounds i8, i8* %60, i64 %61
  %63 = bitcast i8* %62 to %"class.std::ctype"**
  %64 = load %"class.std::ctype"*, %"class.std::ctype"** %63, align 8, !tbaa !11
  %65 = icmp eq %"class.std::ctype"* %64, null
  br i1 %65, label %66, label %67

66:                                               ; preds = %49
  call void @_ZSt16__throw_bad_castv() #8
  unreachable

67:                                               ; preds = %49
  %68 = getelementptr inbounds %"class.std::ctype", %"class.std::ctype"* %64, i64 0, i32 8
  %69 = load i8, i8* %68, align 8, !tbaa !15
  %70 = icmp eq i8 %69, 0
  br i1 %70, label %74, label %71

71:                                               ; preds = %67
  %72 = getelementptr inbounds %"class.std::ctype", %"class.std::ctype"* %64, i64 0, i32 9, i64 10
  %73 = load i8, i8* %72, align 1, !tbaa !17
  br label %80

74:                                               ; preds = %67
  call void @_ZNKSt5ctypeIcE13_M_widen_initEv(%"class.std::ctype"* nonnull align 8 dereferenceable(570) %64)
  %75 = bitcast %"class.std::ctype"* %64 to i8 (%"class.std::ctype"*, i8)***
  %76 = load i8 (%"class.std::ctype"*, i8)**, i8 (%"class.std::ctype"*, i8)*** %75, align 8, !tbaa !9
  %77 = getelementptr inbounds i8 (%"class.std::ctype"*, i8)*, i8 (%"class.std::ctype"*, i8)** %76, i64 6
  %78 = load i8 (%"class.std::ctype"*, i8)*, i8 (%"class.std::ctype"*, i8)** %77, align 8
  %79 = call signext i8 %78(%"class.std::ctype"* nonnull align 8 dereferenceable(570) %64, i8 signext 10)
  br label %80

80:                                               ; preds = %71, %74
  %81 = phi i8 [ %73, %71 ], [ %79, %74 ]
  %82 = call nonnull align 8 dereferenceable(8) %"class.std::basic_ostream"* @_ZNSo3putEc(%"class.std::basic_ostream"* nonnull align 8 dereferenceable(8) %54, i8 signext %81)
  %83 = call nonnull align 8 dereferenceable(8) %"class.std::basic_ostream"* @_ZNSo5flushEv(%"class.std::basic_ostream"* nonnull align 8 dereferenceable(8) %82)
  %84 = load i32, i32* %3, align 4, !tbaa !5
  %85 = mul nsw i32 %84, 3
  %86 = add nsw i32 %85, 1
  br label %87

87:                                               ; preds = %80, %43
  %88 = phi i32 [ %86, %80 ], [ %48, %43 ]
  store i32 %88, i32* %3, align 4, !tbaa !5
  %89 = icmp eq i32 %88, 1
  br i1 %89, label %90, label %8, !llvm.loop !18

90:                                               ; preds = %87, %2
  %91 = call nonnull align 8 dereferenceable(8) %"class.std::basic_ostream"* @_ZSt16__ostream_insertIcSt11char_traitsIcEERSt13basic_ostreamIT_T0_ES6_PKS3_l(%"class.std::basic_ostream"* nonnull align 8 dereferenceable(8) @_ZSt4cout, i8* nonnull getelementptr inbounds ([4 x i8], [4 x i8]* @.str.2, i64 0, i64 0), i64 3)
  call void @llvm.lifetime.end.p0i8(i64 4, i8* nonnull %4) #7
  ret i32 0
}

; Function Attrs: argmemonly mustprogress nofree nosync nounwind willreturn
declare void @llvm.lifetime.start.p0i8(i64 immarg, i8* nocapture) #4

declare nonnull align 8 dereferenceable(16) %"class.std::basic_istream"* @_ZNSirsERi(%"class.std::basic_istream"* nonnull align 8 dereferenceable(16), i32* nonnull align 4 dereferenceable(4)) local_unnamed_addr #0

declare nonnull align 8 dereferenceable(8) %"class.std::basic_ostream"* @_ZNSolsEi(%"class.std::basic_ostream"* nonnull align 8 dereferenceable(8), i32) local_unnamed_addr #0

; Function Attrs: argmemonly mustprogress nofree nosync nounwind willreturn
declare void @llvm.lifetime.end.p0i8(i64 immarg, i8* nocapture) #4

declare nonnull align 8 dereferenceable(8) %"class.std::basic_ostream"* @_ZSt16__ostream_insertIcSt11char_traitsIcEERSt13basic_ostreamIT_T0_ES6_PKS3_l(%"class.std::basic_ostream"* nonnull align 8 dereferenceable(8), i8*, i64) local_unnamed_addr #0

declare nonnull align 8 dereferenceable(8) %"class.std::basic_ostream"* @_ZNSo3putEc(%"class.std::basic_ostream"* nonnull align 8 dereferenceable(8), i8 signext) local_unnamed_addr #0

declare nonnull align 8 dereferenceable(8) %"class.std::basic_ostream"* @_ZNSo5flushEv(%"class.std::basic_ostream"* nonnull align 8 dereferenceable(8)) local_unnamed_addr #0

; Function Attrs: noreturn
declare void @_ZSt16__throw_bad_castv() local_unnamed_addr #5

declare void @_ZNKSt5ctypeIcE13_M_widen_initEv(%"class.std::ctype"* nonnull align 8 dereferenceable(570)) local_unnamed_addr #0

; Function Attrs: sspstrong uwtable
define internal void @_GLOBAL__sub_I_1122.cpp() #6 section ".text.startup" {
  tail call void @_ZNSt8ios_base4InitC1Ev(%"class.std::ios_base::Init"* nonnull align 1 dereferenceable(1) @_ZStL8__ioinit)
  %1 = tail call i32 @__cxa_atexit(void (i8*)* bitcast (void (%"class.std::ios_base::Init"*)* @_ZNSt8ios_base4InitD1Ev to void (i8*)*), i8* getelementptr inbounds (%"class.std::ios_base::Init", %"class.std::ios_base::Init"* @_ZStL8__ioinit, i64 0, i32 0), i8* nonnull @__dso_handle) #7
  ret void
}


!llvm.module.flags = !{!0, !1, !2, !3}
!llvm.ident = !{!4}

!0 = !{i32 1, !"wchar_size", i32 4}
!1 = !{i32 7, !"PIC Level", i32 2}
!2 = !{i32 7, !"PIE Level", i32 2}
!3 = !{i32 7, !"uwtable", i32 1}
!4 = !{!"clang version 13.0.0"}
!5 = !{!6, !6, i64 0}
!6 = !{!"int", !7, i64 0}
!7 = !{!"omnipotent char", !8, i64 0}
!8 = !{!"Simple C++ TBAA"}
!9 = !{!10, !10, i64 0}
!10 = !{!"vtable pointer", !8, i64 0}
!11 = !{!12, !13, i64 240}
!12 = !{!"_ZTSSt9basic_iosIcSt11char_traitsIcEE", !13, i64 216, !7, i64 224, !14, i64 225, !13, i64 232, !13, i64 240, !13, i64 248, !13, i64 256}
!13 = !{!"any pointer", !7, i64 0}
!14 = !{!"bool", !7, i64 0}
!15 = !{!16, !7, i64 56}
!16 = !{!"_ZTSSt5ctypeIcE", !13, i64 16, !14, i64 24, !13, i64 32, !13, i64 40, !13, i64 48, !7, i64 56, !7, i64 57, !7, i64 313, !7, i64 569}
!17 = !{!7, !7, i64 0}
!18 = distinct !{!18, !19}
!19 = !{!"llvm.loop.mustprogress"}
